; Function Attrs: mustprogress uwtable
define hidden noundef ptr @_Z12get_expr_refR11cmd_contextRK6symbol(ptr noundef nonnull align 8 dereferenceable(872) %ctx, ptr noundef nonnull align 8 dereferenceable(8) %v) local_unnamed_addr #3 personality ptr @__gxx_personality_v0 {
entry:
  %call.i = tail call noundef ptr @_ZNK11cmd_context15find_object_refERK6symbol(ptr noundef nonnull align 8 dereferenceable(872) %ctx, ptr noundef nonnull align 8 dereferenceable(8) %v)
  %vtable.i = load ptr, ptr %call.i, align 8
  %vfn.i = getelementptr inbounds i8, ptr %vtable.i, i64 24
  %0 = load ptr, ptr %vfn.i, align 8
  %call1.i = tail call noundef ptr %0(ptr noundef nonnull align 8 dereferenceable(12) %call.i)
  %cmp.not.i = icmp eq ptr %call1.i, @.str.2
  br i1 %cmp.not.i, label %_Z11get_ast_refR11cmd_contextRK6symbol.exit, label %if.then.i

if.then.i:                                        ; preds = %entry
  %exception.i = tail call ptr @__cxa_allocate_exception(i64 48) #10
  invoke void @_ZN13cmd_exceptionC2EPKc(ptr noundef nonnull align 8 dereferenceable(48) %exception.i, ptr noundef nonnull @.str)
          to label %invoke.cont.i unwind label %lpad.i

invoke.cont.i:                                    ; preds = %if.then.i
  tail call void @__cxa_throw(ptr nonnull %exception.i, ptr nonnull @_ZTI13cmd_exception, ptr nonnull @_ZN13cmd_exceptionD2Ev) #11
  unreachable

common.resume:                                    ; preds = %lpad, %lpad.i
  %exception.sink = phi ptr [ %exception, %lpad ], [ %exception.i, %lpad.i ]
  %common.resume.op = phi { ptr, i32 } [ %5, %lpad ], [ %1, %lpad.i ]
  tail call void @__cxa_free_exception(ptr %exception.sink) #10
  resume { ptr, i32 } %common.resume.op

lpad.i:                                           ; preds = %if.then.i
  %1 = landingpad { ptr, i32 }
          cleanup
  br label %common.resume

_Z11get_ast_refR11cmd_contextRK6symbol.exit:      ; preds = %entry
  %m_ast.i.i = getelementptr inbounds i8, ptr %call.i, i64 16
  %2 = load ptr, ptr %m_ast.i.i, align 8
  %m_kind.i.i.i = getelementptr inbounds i8, ptr %2, i64 4
  %bf.load.i.i.i = load i32, ptr %m_kind.i.i.i, align 4
  %bf.clear.i.i.i = and i32 %bf.load.i.i.i, 65535
  %3 = add nsw i32 %bf.clear.i.i.i, -5
  %4 = icmp ult i32 %3, -2
  br i1 %4, label %if.end, label %if.then

if.then:                                          ; preds = %_Z11get_ast_refR11cmd_contextRK6symbol.exit
  %exception = tail call ptr @__cxa_allocate_exception(i64 48) #10
  invoke void @_ZN13cmd_exceptionC2EPKc(ptr noundef nonnull align 8 dereferenceable(48) %exception, ptr noundef nonnull @.str.1)
          to label %invoke.cont unwind label %lpad

invoke.cont:                                      ; preds = %if.then
  tail call void @__cxa_throw(ptr nonnull %exception, ptr nonnull @_ZTI13cmd_exception, ptr nonnull @_ZN13cmd_exceptionD2Ev) #11
  unreachable

lpad:                                             ; preds = %if.then
  %5 = landingpad { ptr, i32 }
          cleanup
  br label %common.resume

if.end:                                           ; preds = %_Z11get_ast_refR11cmd_contextRK6symbol.exit
  ret ptr %2
}